target datalayout = "e-m:e-p270:32:32-p271:32:32-p272:64:64-i64:64-i128:128-f80:128-n8:16:32:64-S128"
target triple = "x86_64-pc-linux-gnu"

%struct.archive_match = type { %struct.archive, i32, i32, %struct.match_list, %struct.match_list, i64, i32, i64, i64, i32, i64, i64, i32, i64, i64, i32, i64, i64, %struct.archive_rb_tree, %struct.entry_list, %struct.id_array, %struct.id_array, %struct.match_list, %struct.match_list }
%struct.archive = type { i32, i32, ptr, i32, ptr, i32, i32, ptr, %struct.archive_string, ptr, i32, i32, ptr, ptr, i64, i64, i64, i8, i64 }
%struct.archive_string = type { ptr, i64, i64 }
%struct.archive_rb_tree = type { ptr, ptr }
%struct.entry_list = type { ptr, ptr, i32 }
%struct.id_array = type { i64, i64, ptr }
%struct.match_list = type { ptr, ptr, i32, i32, ptr, i32 }
%struct.match = type { ptr, i32, %struct.archive_mstring }
%struct.archive_mstring = type { %struct.archive_string, %struct.archive_string, %struct.archive_wstring, %struct.archive_string, i32 }
%struct.archive_wstring = type { ptr, i64, i64 }

@.str.4 = private unnamed_addr constant [17 x i8] c"pattern is empty\00", align 1
@.str.8 = private unnamed_addr constant [30 x i8] c"archive_match_include_pattern\00", align 1
@.str.32 = private unnamed_addr constant [10 x i8] c"No memory\00", align 1

; Function Attrs: nounwind uwtable
define internal void @match_list_add(ptr noundef %0, ptr noundef %1) #0 {
  %3 = alloca ptr, align 8
  %4 = alloca ptr, align 8
  store ptr %0, ptr %3, align 8, !tbaa !31
  store ptr %1, ptr %4, align 8, !tbaa !46
  %5 = load ptr, ptr %4, align 8, !tbaa !46
  %6 = load ptr, ptr %3, align 8, !tbaa !31
  %7 = getelementptr inbounds nuw %struct.match_list, ptr %6, i32 0, i32 1
  %8 = load ptr, ptr %7, align 8, !tbaa !34
  store ptr %5, ptr %8, align 8, !tbaa !46
  %9 = load ptr, ptr %4, align 8, !tbaa !46
  %10 = getelementptr inbounds nuw %struct.match, ptr %9, i32 0, i32 0
  %11 = load ptr, ptr %3, align 8, !tbaa !31
  %12 = getelementptr inbounds nuw %struct.match_list, ptr %11, i32 0, i32 1
  store ptr %10, ptr %12, align 8, !tbaa !34
  %13 = load ptr, ptr %3, align 8, !tbaa !31
  %14 = getelementptr inbounds nuw %struct.match_list, ptr %13, i32 0, i32 2
  %15 = load i32, ptr %14, align 8, !tbaa !35
  %16 = add nsw i32 %15, 1
  store i32 %16, ptr %14, align 8, !tbaa !35
  %17 = load ptr, ptr %3, align 8, !tbaa !31
  %18 = getelementptr inbounds nuw %struct.match_list, ptr %17, i32 0, i32 3
  %19 = load i32, ptr %18, align 4, !tbaa !107
  %20 = add nsw i32 %19, 1
  store i32 %20, ptr %18, align 4, !tbaa !107
  ret void
}

; Function Attrs: nounwind uwtable
define internal i32 @error_nomem(ptr noundef %0) #0 {
  %2 = alloca ptr, align 8
  store ptr %0, ptr %2, align 8, !tbaa !4
  %3 = load ptr, ptr %2, align 8, !tbaa !4
  %4 = getelementptr inbounds nuw %struct.archive_match, ptr %3, i32 0, i32 0
  call void (ptr, i32, ptr, ...) @archive_set_error(ptr noundef %4, i32 noundef 12, ptr noundef @.str.32)
  %5 = load ptr, ptr %2, align 8, !tbaa !4
  %6 = getelementptr inbounds nuw %struct.archive_match, ptr %5, i32 0, i32 0
  %7 = getelementptr inbounds nuw %struct.archive, ptr %6, i32 0, i32 1
  store i32 32768, ptr %7, align 4, !tbaa !29
  ret i32 -30
}

; Function Attrs: nounwind uwtable
define internal i32 @add_pattern_mbs(ptr noundef %0, ptr noundef %1, ptr noundef %2) #0 {
  %4 = alloca i32, align 4
  %5 = alloca ptr, align 8
  %6 = alloca ptr, align 8
  %7 = alloca ptr, align 8
  %8 = alloca ptr, align 8
  %9 = alloca i64, align 8
  %10 = alloca i32, align 4
  store ptr %0, ptr %5, align 8, !tbaa !4
  store ptr %1, ptr %6, align 8, !tbaa !31
  store ptr %2, ptr %7, align 8, !tbaa !94
  call void @llvm.lifetime.start.p0(i64 8, ptr %8) #9
  call void @llvm.lifetime.start.p0(i64 8, ptr %9) #9
  %11 = call noalias ptr @calloc(i64 noundef 1, i64 noundef 120) #10
  store ptr %11, ptr %8, align 8, !tbaa !46
  %12 = load ptr, ptr %8, align 8, !tbaa !46
  %13 = icmp eq ptr %12, null
  br i1 %13, label %14, label %17

14:                                               ; preds = %3
  %15 = load ptr, ptr %5, align 8, !tbaa !4
  %16 = call i32 @error_nomem(ptr noundef %15)
  store i32 %16, ptr %4, align 4
  store i32 1, ptr %10, align 4
  br label %45

17:                                               ; preds = %3
  %18 = load ptr, ptr %7, align 8, !tbaa !94
  %19 = call i64 @strlen(ptr noundef %18) #11
  store i64 %19, ptr %9, align 8, !tbaa !71
  %20 = load i64, ptr %9, align 8, !tbaa !71
  %21 = icmp ne i64 %20, 0
  br i1 %21, label %22, label %33

22:                                               ; preds = %17
  %23 = load ptr, ptr %7, align 8, !tbaa !94
  %24 = load i64, ptr %9, align 8, !tbaa !71
  %25 = sub i64 %24, 1
  %26 = getelementptr inbounds nuw i8, ptr %23, i64 %25
  %27 = load i8, ptr %26, align 1, !tbaa !95
  %28 = sext i8 %27 to i32
  %29 = icmp eq i32 %28, 47
  br i1 %29, label %30, label %33

30:                                               ; preds = %22
  %31 = load i64, ptr %9, align 8, !tbaa !71
  %32 = add i64 %31, -1
  store i64 %32, ptr %9, align 8, !tbaa !71
  br label %33

33:                                               ; preds = %30, %22, %17
  %34 = load ptr, ptr %8, align 8, !tbaa !46
  %35 = getelementptr inbounds nuw %struct.match, ptr %34, i32 0, i32 2
  %36 = load ptr, ptr %7, align 8, !tbaa !94
  %37 = load i64, ptr %9, align 8, !tbaa !71
  %38 = call i32 @archive_mstring_copy_mbs_len(ptr noundef %35, ptr noundef %36, i64 noundef %37)
  %39 = load ptr, ptr %6, align 8, !tbaa !31
  %40 = load ptr, ptr %8, align 8, !tbaa !46
  call void @match_list_add(ptr noundef %39, ptr noundef %40)
  %41 = load ptr, ptr %5, align 8, !tbaa !4
  %42 = getelementptr inbounds nuw %struct.archive_match, ptr %41, i32 0, i32 1
  %43 = load i32, ptr %42, align 8, !tbaa !61
  %44 = or i32 %43, 1
  store i32 %44, ptr %42, align 8, !tbaa !61
  store i32 0, ptr %4, align 4
  store i32 1, ptr %10, align 4
  br label %45

45:                                               ; preds = %33, %14
  call void @llvm.lifetime.end.p0(i64 8, ptr %9) #9
  call void @llvm.lifetime.end.p0(i64 8, ptr %8) #9
  %46 = load i32, ptr %4, align 4
  ret i32 %46
}

; Function Attrs: nounwind uwtable
define dso_local i32 @archive_match_include_pattern(ptr noundef %0, ptr noundef %1) #0 {
  %3 = alloca i32, align 4
  %4 = alloca ptr, align 8
  %5 = alloca ptr, align 8
  %6 = alloca ptr, align 8
  %7 = alloca i32, align 4
  %8 = alloca i32, align 4
  %9 = alloca i32, align 4
  store ptr %0, ptr %4, align 8, !tbaa !41
  store ptr %1, ptr %5, align 8, !tbaa !94
  call void @llvm.lifetime.start.p0(i64 8, ptr %6) #9
  call void @llvm.lifetime.start.p0(i64 4, ptr %7) #9
  br label %10

10:                                               ; preds = %2
  call void @llvm.lifetime.start.p0(i64 4, ptr %8) #9
  %11 = load ptr, ptr %4, align 8, !tbaa !41
  %12 = call i32 @__archive_check_magic(ptr noundef %11, i32 noundef 212668873, i32 noundef 1, ptr noundef @.str.8)
  store i32 %12, ptr %8, align 4, !tbaa !43
  %13 = load i32, ptr %8, align 4, !tbaa !43
  %14 = icmp eq i32 %13, -30
  br i1 %14, label %15, label %16

15:                                               ; preds = %10
  store i32 -30, ptr %3, align 4
  store i32 1, ptr %9, align 4
  br label %17

16:                                               ; preds = %10
  store i32 0, ptr %9, align 4
  br label %17

17:                                               ; preds = %16, %15
  call void @llvm.lifetime.end.p0(i64 4, ptr %8) #9
  %18 = load i32, ptr %9, align 4
  switch i32 %18, label %43 [
    i32 0, label %19
  ]

19:                                               ; preds = %17
  br label %20

20:                                               ; preds = %19
  br label %21

21:                                               ; preds = %20
  %22 = load ptr, ptr %4, align 8, !tbaa !41
  store ptr %22, ptr %6, align 8, !tbaa !4
  %23 = load ptr, ptr %5, align 8, !tbaa !94
  %24 = icmp eq ptr %23, null
  br i1 %24, label %30, label %25

25:                                               ; preds = %21
  %26 = load ptr, ptr %5, align 8, !tbaa !94
  %27 = load i8, ptr %26, align 1, !tbaa !95
  %28 = sext i8 %27 to i32
  %29 = icmp eq i32 %28, 0
  br i1 %29, label %30, label %33

30:                                               ; preds = %25, %21
  %31 = load ptr, ptr %6, align 8, !tbaa !4
  %32 = getelementptr inbounds nuw %struct.archive_match, ptr %31, i32 0, i32 0
  call void (ptr, i32, ptr, ...) @archive_set_error(ptr noundef %32, i32 noundef 22, ptr noundef @.str.4)
  store i32 -25, ptr %3, align 4
  store i32 1, ptr %9, align 4
  br label %43

33:                                               ; preds = %25
  %34 = load ptr, ptr %6, align 8, !tbaa !4
  %35 = load ptr, ptr %6, align 8, !tbaa !4
  %36 = getelementptr inbounds nuw %struct.archive_match, ptr %35, i32 0, i32 4
  %37 = load ptr, ptr %5, align 8, !tbaa !94
  %38 = call i32 @add_pattern_mbs(ptr noundef %34, ptr noundef %36, ptr noundef %37)
  store i32 %38, ptr %7, align 4, !tbaa !43
  %39 = icmp ne i32 %38, 0
  br i1 %39, label %40, label %42

40:                                               ; preds = %33
  %41 = load i32, ptr %7, align 4, !tbaa !43
  store i32 %41, ptr %3, align 4
  store i32 1, ptr %9, align 4
  br label %43

42:                                               ; preds = %33
  store i32 0, ptr %3, align 4
  store i32 1, ptr %9, align 4
  br label %43

43:                                               ; preds = %42, %40, %30, %17
  call void @llvm.lifetime.end.p0(i64 4, ptr %7) #9
  call void @llvm.lifetime.end.p0(i64 8, ptr %6) #9
  %44 = load i32, ptr %3, align 4
  ret i32 %44
}